(dp1
S'equiped'
p2
(lp3
(dp4
S'quality'
p5
I5
sS'eid'
p6
I1
sS'level'
p7
I6
sa(dp8
g5
I4
sg6
I3
sg7
I8
sa(dp9
g5
I5
sg6
I2
sg7
I4
sa(dp10
g5
I5
sg6
I4
sg7
I4
sa(dp11
g5
I3
sg6
I5
sg7
I5
saNa(dp12
g5
I4
sg6
I7
sg7
I6
sa(dp13
g5
I4
sg6
I10
sg7
I9
sa(dp14
g5
I4
sg6
I9
sg7
I4
saNasS'bag'
p15
(dp16
sS'skill'
p17
(lp18
(dp19
S'skill_id'
p20
I1
sg7
I1
sa(dp21
g20
I2
sg7
I1
sa(dp22
g20
I3
sg7
I1
sa(dp23
g20
I4
sg7
I1
sa(dp24
g20
I5
sg7
I1
sasS'user'
p25
(dp26
S'exp'
p27
I1560
sg7
I10
ssS'item'
p28
(lp29
(dp30
g5
I1
sg6
I2
sg7
I1
sa(dp31
g5
I0
sg6
I2
sg7
I1
sa(dp32
g5
I2
sg6
I7
sg7
I2
sa(dp33
g5
I0
sg6
I7
sg7
I2
sa(dp34
g5
I4
sg6
I7
sg7
I1
sa(dp35
g5
I4
sg6
I10
sg7
I2
sa(dp36
g5
I2
sg6
I3
sg7
I2
sa(dp37
g5
I4
sg6
I10
sg7
I4
sa(dp38
g5
I4
sg6
I2
sg7
I1
sa(dp39
g5
I2
sg6
I2
sg7
I1
sa(dp40
g5
I3
sg6
I9
sg7
I4
sa(dp41
g5
I1
sg6
I4
sg7
I4
sa(dp42
g5
I2
sg6
I5
sg7
I4
sa(dp43
g5
I4
sg6
I4
sg7
I3
sa(dp44
g5
I3
sg6
I9
sg7
I6
sa(dp45
g5
I3
sg6
I4
sg7
I3
sa(dp46
g5
I1
sg6
I5
sg7
I1
sa(dp47
g5
I0
sg6
I8
sg7
I1
sa(dp48
g5
I4
sg6
I9
sg7
I1
sa(dp49
g5
I3
sg6
I6
sg7
I6
sa(dp50
g5
I2
sg6
I7
sg7
I2
sa(dp51
g5
I3
sg6
I9
sg7
I5
sa(dp52
g5
I1
sg6
I3
sg7
I4
sa(dp53
g5
I5
sg6
I10
sg7
I2
sa(dp54
g5
I4
sg6
I9
sg7
I3
sa(dp55
g5
I2
sg6
I10
sg7
I6
sa(dp56
g5
I1
sg6
I1
sg7
I5
sa(dp57
g5
I2
sg6
I1
sg7
I7
sa(dp58
g5
I4
sg6
I9
sg7
I4
sa(dp59
g5
I0
sg6
I1
sg7
I7
sa(dp60
g5
I3
sg6
I1
sg7
I5
sa(dp61
g5
I1
sg6
I1
sg7
I6
sa(dp62
g5
I0
sg6
I9
sg7
I8
sa(dp63
g5
I1
sg6
I4
sg7
I6
sa(dp64
g5
I4
sg6
I1
sg7
I6
sa(dp65
g5
I0
sg6
I5
sg7
I5
sa(dp66
g5
I1
sg6
I7
sg7
I6
sa(dp67
g5
I4
sg6
I1
sg7
I9
sa(dp68
g5
I3
sg6
I8
sg7
I8
sa(dp69
g5
I3
sg6
I1
sg7
I6
sa(dp70
g5
I1
sg6
I9
sg7
I8
sa(dp71
g5
I4
sg6
I7
sg7
I3
sa(dp72
g5
I4
sg6
I8
sg7
I8
sa(dp73
g5
I1
sg6
I5
sg7
I6
sa(dp74
g5
I1
sg6
I1
sg7
I7
sa(dp75
g5
I1
sg6
I10
sg7
I8
sa(dp76
g5
I4
sg6
I3
sg7
I1
sa(dp77
g5
I1
sg6
I10
sg7
I7
sa(dp78
g5
I2
sg6
I5
sg7
I7
sa(dp79
g5
I5
sg6
I8
sg7
I5
sa(dp80
g5
I1
sg6
I10
sg7
I9
saNaNaNaNaNaNaNaNaNaNaNaNaNaNaNaNaNaNaNaNaNaNaNaNaNaNaNaNaNaNaNaNaNaNaNaNaNaNaNas.