(dp1
S'equiped'
p2
(lp3
(dp4
S'quality'
p5
I4
sS'eid'
p6
I1
sS'level'
p7
I11
sa(dp8
g5
I5
sg6
I3
sg7
I9
sa(dp9
g5
I5
sg6
I2
sg7
I4
sa(dp10
g5
I5
sg6
I6
sg7
I10
sa(dp11
g5
I3
sg6
I5
sg7
I5
saNa(dp12
g5
I4
sg6
I7
sg7
I6
sa(dp13
g5
I4
sg6
I10
sg7
I9
sa(dp14
g5
I5
sg6
I8
sg7
I5
sa(dp15
g5
I4
sg6
I9
sg7
I1
sasS'bag'
p16
(dp17
sS'skill'
p18
(lp19
(dp20
S'skill_id'
p21
I1
sg7
I1
sa(dp22
g21
I2
sg7
I1
sa(dp23
g21
I3
sg7
I1
sa(dp24
g21
I4
sg7
I1
sa(dp25
g21
I5
sg7
I1
sasS'user'
p26
(dp27
S'exp'
p28
I2502
sg7
I12
ssS'item'
p29
(lp30
(dp31
g5
I1
sg6
I2
sg7
I1
sa(dp32
g5
I0
sg6
I2
sg7
I1
sa(dp33
g5
I2
sg6
I7
sg7
I2
sa(dp34
g5
I0
sg6
I7
sg7
I2
sa(dp35
g5
I4
sg6
I7
sg7
I1
sa(dp36
g5
I4
sg6
I10
sg7
I2
sa(dp37
g5
I2
sg6
I3
sg7
I2
sa(dp38
g5
I4
sg6
I10
sg7
I4
sa(dp39
g5
I4
sg6
I2
sg7
I1
sa(dp40
g5
I2
sg6
I2
sg7
I1
sa(dp41
g5
I3
sg6
I9
sg7
I4
sa(dp42
g5
I1
sg6
I4
sg7
I4
sa(dp43
g5
I2
sg6
I5
sg7
I4
sa(dp44
g5
I4
sg6
I4
sg7
I3
sa(dp45
g5
I3
sg6
I9
sg7
I6
sa(dp46
g5
I3
sg6
I4
sg7
I3
sa(dp47
g5
I1
sg6
I5
sg7
I1
sa(dp48
g5
I0
sg6
I8
sg7
I1
sa(dp49
g5
I0
sg6
I11
sg7
I8
sa(dp50
g5
I3
sg6
I6
sg7
I6
sa(dp51
g5
I2
sg6
I7
sg7
I2
sa(dp52
g5
I3
sg6
I9
sg7
I5
sa(dp53
g5
I1
sg6
I3
sg7
I4
sa(dp54
g5
I5
sg6
I10
sg7
I2
sa(dp55
g5
I4
sg6
I9
sg7
I3
sa(dp56
g5
I2
sg6
I10
sg7
I6
sa(dp57
g5
I1
sg6
I1
sg7
I5
sa(dp58
g5
I2
sg6
I1
sg7
I7
sa(dp59
g5
I4
sg6
I9
sg7
I4
sa(dp60
g5
I0
sg6
I1
sg7
I7
sa(dp61
g5
I3
sg6
I1
sg7
I5
sa(dp62
g5
I1
sg6
I1
sg7
I6
sa(dp63
g5
I0
sg6
I9
sg7
I8
sa(dp64
g5
I1
sg6
I4
sg7
I6
sa(dp65
g5
I4
sg6
I1
sg7
I6
sa(dp66
g5
I0
sg6
I5
sg7
I5
sa(dp67
g5
I1
sg6
I7
sg7
I6
sa(dp68
g5
I4
sg6
I1
sg7
I9
sa(dp69
g5
I3
sg6
I8
sg7
I8
sa(dp70
g5
I3
sg6
I1
sg7
I6
sa(dp71
g5
I1
sg6
I9
sg7
I8
sa(dp72
g5
I4
sg6
I7
sg7
I3
sa(dp73
g5
I4
sg6
I8
sg7
I8
sa(dp74
g5
I1
sg6
I5
sg7
I6
sa(dp75
g5
I1
sg6
I1
sg7
I7
sa(dp76
g5
I1
sg6
I10
sg7
I8
sa(dp77
g5
I4
sg6
I3
sg7
I1
sa(dp78
g5
I1
sg6
I10
sg7
I7
sa(dp79
g5
I2
sg6
I5
sg7
I7
sa(dp80
g5
I4
sg6
I9
sg7
I4
sa(dp81
g5
I1
sg6
I10
sg7
I9
sa(dp82
g5
I1
sg6
I10
sg7
I9
sa(dp83
g5
I0
sg6
I5
sg7
I8
sa(dp84
g5
I0
sg6
I2
sg7
I8
sa(dp85
g5
I4
sg6
I3
sg7
I8
sa(dp86
g5
I5
sg6
I4
sg7
I4
sa(dp87
g5
I5
sg6
I1
sg7
I6
sa(dp88
g5
I5
sg6
I2
sg7
I11
sa(dp89
g5
I4
sg6
I2
sg7
I9
sa(dp90
g5
I1
sg6
I5
sg7
I8
sa(dp91
g5
I3
sg6
I4
sg7
I9
sa(dp92
g5
I1
sg6
I7
sg7
I11
sa(dp93
g5
I1
sg6
I2
sg7
I11
sa(dp94
g5
I2
sg6
I9
sg7
I11
sa(dp95
g5
I5
sg6
I4
sg7
I10
saNaNaNaNaNaNaNaNaNaNaNaNaNaNaNaNaNaNaNaNaNaNaNaNaNas.