(lp1
(dp2
S'y'
I0
sS'x'
I0
sS'w'
I58
sS'key'
p3
Vweapon0
p4
sS'h'
I60
sa(dp5
S'y'
I0
sS'x'
I58
sS'w'
I58
sg3
Vweapon1
p6
sS'h'
I58
sa(dp7
S'y'
I0
sS'x'
I116
sS'w'
I61
sg3
Vweapon6
p8
sS'h'
I61
sa(dp9
S'y'
I0
sS'x'
I177
sS'w'
I62
sg3
Vweapon5
p10
sS'h'
I63
sa(dp11
S'y'
I0
sS'x'
I239
sS'w'
I61
sg3
Vweapon4
p12
sS'h'
I62
sa(dp13
S'y'
I0
sS'x'
I300
sS'w'
I61
sg3
Vweapon3
p14
sS'h'
I60
sa(dp15
S'y'
I0
sS'x'
I361
sS'w'
I64
sg3
Vclothes0
p16
sS'h'
I66
sa(dp17
S'y'
I0
sS'x'
I425
sS'w'
I66
sg3
Vclothes1
p18
sS'h'
I62
sa(dp19
S'y'
I65
sS'x'
I-2
sS'w'
I68
sg3
Vclothes2
p20
sS'h'
I61
sa(dp21
S'y'
I65
sS'x'
I212
sS'w'
I63
sg3
Vclothes3
p22
sS'h'
I63
sa(dp23
S'y'
I65
sS'x'
I69
sS'w'
I67
sg3
Vclothes4
p24
sS'h'
I63
sa(dp25
S'y'
I66
sS'x'
I136
sS'w'
I68
sg3
Vclothes5
p26
sS'h'
I65
sa(dp27
S'y'
I146
sS'x'
I252
sS'w'
I62
sg3
Vhat0
p28
sS'h'
I61
sa(dp29
S'y'
I141
sS'x'
I57
sS'w'
I66
sg3
Vhat1
p30
sS'h'
I58
sa(dp31
S'y'
I143
sS'x'
I189
sS'w'
I64
sg3
Vhat2
p32
sS'h'
I61
sa(dp33
S'y'
I140
sS'x'
I122
sS'w'
I68
sg3
Vhat3
p34
sS'h'
I64
sa(dp35
S'y'
I136
sS'x'
I310
sS'w'
I62
sg3
Vhat4
p36
sS'h'
I66
sa(dp37
S'y'
I130
sS'x'
I-5
sS'w'
I66
sg3
Vhat5
p38
sS'h'
I66
sa.