(lp1
(dp2
S'y'
I0
sS'x'
I0
sS'w'
I39
sS'key'
p3
Vbtn1
p4
sS'h'
I60
sa(dp5
S'y'
I4
sS'x'
I44
sS'w'
I48
sg3
Vbtn2
p6
sS'h'
I57
sa(dp7
S'y'
I2
sS'x'
I89
sS'w'
I45
sg3
Vbtn3
p8
sS'h'
I60
sa(dp9
S'y'
I5
sS'x'
I135
sS'w'
I52
sg3
Vbtn4
p10
sS'h'
I55
sa(dp11
S'y'
I0
sS'x'
I186
sS'w'
I172
sg3
Vheader
p12
sS'h'
I60
sa(dp13
S'y'
I0
sS'x'
I366
sS'w'
I64
sg3
Vecell
p14
sS'h'
I64
sa(dp15
S'y'
I0
sS'x'
I437
sS'w'
I63
sg3
Vnocell
p16
sS'h'
I63
sa(dp17
S'y'
I70
sS'x'
I228
sS'w'
I37
sg3
Vmouse1
p18
sS'h'
I36
sa(dp19
S'y'
I70
sS'x'
I274
sS'w'
I36
sg3
Vmouse2
p20
sS'h'
I35
sa(dp21
S'y'
I73
sS'x'
I321
sS'w'
I33
sg3
Vmouse3
p22
sS'h'
I32
sa(dp23
S'y'
I72
sS'x'
I362
sS'w'
I39
sg3
Vmouse4
p24
sS'h'
I39
sa(dp25
S'y'
I75
sS'x'
I410
sS'w'
I19
sg3
Vstar
p26
sS'h'
I19
sa(dp27
S'y'
I128
sS'x'
I-2
sS'w'
I241
sg3
Vui1
p28
sS'h'
I30
sa(dp29
S'y'
I160
sS'x'
I-2
sS'w'
I241
sg3
Vui2
p30
sS'h'
I132
sa.